target datalayout = "e-m:e-p270:32:32-p271:32:32-p272:64:64-i64:64-i128:128-f80:128-n8:16:32:64-S128"
target triple = "x86_64-pc-linux-gnu"

%struct.Abc_Cex_t_ = type { i32, i32, i32, i32, i32, [0 x i32] }

; Function Attrs: inlinehint nounwind uwtable
define internal i32 @Abc_BitWordNum(i32 noundef %0) #2 {
  %2 = alloca i32, align 4
  store i32 %0, ptr %2, align 4, !tbaa !3
  %3 = load i32, ptr %2, align 4, !tbaa !3
  %4 = ashr i32 %3, 5
  %5 = load i32, ptr %2, align 4, !tbaa !3
  %6 = and i32 %5, 31
  %7 = icmp sgt i32 %6, 0
  %8 = zext i1 %7 to i32
  %9 = add nsw i32 %4, %8
  ret i32 %9
}

; Function Attrs: inlinehint nounwind uwtable
define internal void @Abc_InfoSetBit(ptr noundef %0, i32 noundef %1) #2 {
  %3 = alloca ptr, align 8
  %4 = alloca i32, align 4
  store ptr %0, ptr %3, align 8, !tbaa !16
  store i32 %1, ptr %4, align 4, !tbaa !3
  %5 = load i32, ptr %4, align 4, !tbaa !3
  %6 = and i32 %5, 31
  %7 = shl i32 1, %6
  %8 = load ptr, ptr %3, align 8, !tbaa !16
  %9 = load i32, ptr %4, align 4, !tbaa !3
  %10 = ashr i32 %9, 5
  %11 = sext i32 %10 to i64
  %12 = getelementptr inbounds i32, ptr %8, i64 %11
  %13 = load i32, ptr %12, align 4, !tbaa !3
  %14 = or i32 %13, %7
  store i32 %14, ptr %12, align 4, !tbaa !3
  ret void
}

; Function Attrs: inlinehint nounwind uwtable
define internal i32 @Abc_InfoHasBit(ptr noundef %0, i32 noundef %1) #2 {
  %3 = alloca ptr, align 8
  %4 = alloca i32, align 4
  store ptr %0, ptr %3, align 8, !tbaa !16
  store i32 %1, ptr %4, align 4, !tbaa !3
  %5 = load ptr, ptr %3, align 8, !tbaa !16
  %6 = load i32, ptr %4, align 4, !tbaa !3
  %7 = ashr i32 %6, 5
  %8 = sext i32 %7 to i64
  %9 = getelementptr inbounds i32, ptr %5, i64 %8
  %10 = load i32, ptr %9, align 4, !tbaa !3
  %11 = load i32, ptr %4, align 4, !tbaa !3
  %12 = and i32 %11, 31
  %13 = shl i32 1, %12
  %14 = and i32 %10, %13
  %15 = icmp ugt i32 %14, 0
  %16 = zext i1 %15 to i32
  ret i32 %16
}

; Function Attrs: nounwind uwtable
define ptr @Abc_CexAlloc(i32 noundef %0, i32 noundef %1, i32 noundef %2) #0 {
  %4 = alloca i32, align 4
  %5 = alloca i32, align 4
  %6 = alloca i32, align 4
  %7 = alloca ptr, align 8
  %8 = alloca i32, align 4
  store i32 %0, ptr %4, align 4, !tbaa !3
  store i32 %1, ptr %5, align 4, !tbaa !3
  store i32 %2, ptr %6, align 4, !tbaa !3
  call void @llvm.lifetime.start.p0(i64 8, ptr %7) #8
  call void @llvm.lifetime.start.p0(i64 4, ptr %8) #8
  %9 = load i32, ptr %4, align 4, !tbaa !3
  %10 = load i32, ptr %5, align 4, !tbaa !3
  %11 = load i32, ptr %6, align 4, !tbaa !3
  %12 = mul nsw i32 %10, %11
  %13 = add nsw i32 %9, %12
  %14 = call i32 @Abc_BitWordNum(i32 noundef %13)
  store i32 %14, ptr %8, align 4, !tbaa !3
  %15 = load i32, ptr %8, align 4, !tbaa !3
  %16 = sext i32 %15 to i64
  %17 = mul i64 4, %16
  %18 = add i64 20, %17
  %19 = mul i64 1, %18
  %20 = call noalias ptr @malloc(i64 noundef %19) #9
  store ptr %20, ptr %7, align 8, !tbaa !7
  %21 = load ptr, ptr %7, align 8, !tbaa !7
  %22 = load i32, ptr %8, align 4, !tbaa !3
  %23 = sext i32 %22 to i64
  %24 = mul i64 4, %23
  %25 = add i64 20, %24
  call void @llvm.memset.p0.i64(ptr align 4 %21, i8 0, i64 %25, i1 false)
  %26 = load i32, ptr %4, align 4, !tbaa !3
  %27 = load ptr, ptr %7, align 8, !tbaa !7
  %28 = getelementptr inbounds nuw %struct.Abc_Cex_t_, ptr %27, i32 0, i32 2
  store i32 %26, ptr %28, align 4, !tbaa !10
  %29 = load i32, ptr %5, align 4, !tbaa !3
  %30 = load ptr, ptr %7, align 8, !tbaa !7
  %31 = getelementptr inbounds nuw %struct.Abc_Cex_t_, ptr %30, i32 0, i32 3
  store i32 %29, ptr %31, align 4, !tbaa !12
  %32 = load i32, ptr %4, align 4, !tbaa !3
  %33 = load i32, ptr %5, align 4, !tbaa !3
  %34 = load i32, ptr %6, align 4, !tbaa !3
  %35 = mul nsw i32 %33, %34
  %36 = add nsw i32 %32, %35
  %37 = load ptr, ptr %7, align 8, !tbaa !7
  %38 = getelementptr inbounds nuw %struct.Abc_Cex_t_, ptr %37, i32 0, i32 4
  store i32 %36, ptr %38, align 4, !tbaa !13
  %39 = load ptr, ptr %7, align 8, !tbaa !7
  call void @llvm.lifetime.end.p0(i64 4, ptr %8) #8
  call void @llvm.lifetime.end.p0(i64 8, ptr %7) #8
  ret ptr %39
}

; Function Attrs: nounwind uwtable
define ptr @Abc_CexTransformTempor(ptr noundef %0, i32 noundef %1, i32 noundef %2, i32 noundef %3) #0 {
  %5 = alloca ptr, align 8
  %6 = alloca i32, align 4
  %7 = alloca i32, align 4
  %8 = alloca i32, align 4
  %9 = alloca ptr, align 8
  %10 = alloca i32, align 4
  %11 = alloca i32, align 4
  %12 = alloca i32, align 4
  %13 = alloca i32, align 4
  store ptr %0, ptr %5, align 8, !tbaa !7
  store i32 %1, ptr %6, align 4, !tbaa !3
  store i32 %2, ptr %7, align 4, !tbaa !3
  store i32 %3, ptr %8, align 4, !tbaa !3
  call void @llvm.lifetime.start.p0(i64 8, ptr %9) #8
  call void @llvm.lifetime.start.p0(i64 4, ptr %10) #8
  call void @llvm.lifetime.start.p0(i64 4, ptr %11) #8
  call void @llvm.lifetime.start.p0(i64 4, ptr %12) #8
  %14 = load i32, ptr %8, align 4, !tbaa !3
  store i32 %14, ptr %12, align 4, !tbaa !3
  call void @llvm.lifetime.start.p0(i64 4, ptr %13) #8
  %15 = load ptr, ptr %5, align 8, !tbaa !7
  %16 = getelementptr inbounds nuw %struct.Abc_Cex_t_, ptr %15, i32 0, i32 3
  %17 = load i32, ptr %16, align 4, !tbaa !12
  %18 = load i32, ptr %6, align 4, !tbaa !3
  %19 = sdiv i32 %17, %18
  %20 = sub nsw i32 %19, 1
  store i32 %20, ptr %13, align 4, !tbaa !3
  %21 = load i32, ptr %8, align 4, !tbaa !3
  %22 = load i32, ptr %6, align 4, !tbaa !3
  %23 = load i32, ptr %13, align 4, !tbaa !3
  %24 = load ptr, ptr %5, align 8, !tbaa !7
  %25 = getelementptr inbounds nuw %struct.Abc_Cex_t_, ptr %24, i32 0, i32 1
  %26 = load i32, ptr %25, align 4, !tbaa !15
  %27 = add nsw i32 %23, %26
  %28 = add nsw i32 %27, 1
  %29 = call ptr @Abc_CexAlloc(i32 noundef %21, i32 noundef %22, i32 noundef %28)
  store ptr %29, ptr %9, align 8, !tbaa !7
  %30 = load ptr, ptr %5, align 8, !tbaa !7
  %31 = getelementptr inbounds nuw %struct.Abc_Cex_t_, ptr %30, i32 0, i32 0
  %32 = load i32, ptr %31, align 4, !tbaa !14
  %33 = load ptr, ptr %9, align 8, !tbaa !7
  %34 = getelementptr inbounds nuw %struct.Abc_Cex_t_, ptr %33, i32 0, i32 0
  store i32 %32, ptr %34, align 4, !tbaa !14
  %35 = load i32, ptr %13, align 4, !tbaa !3
  %36 = load ptr, ptr %5, align 8, !tbaa !7
  %37 = getelementptr inbounds nuw %struct.Abc_Cex_t_, ptr %36, i32 0, i32 1
  %38 = load i32, ptr %37, align 4, !tbaa !15
  %39 = add nsw i32 %35, %38
  %40 = load ptr, ptr %9, align 8, !tbaa !7
  %41 = getelementptr inbounds nuw %struct.Abc_Cex_t_, ptr %40, i32 0, i32 1
  store i32 %39, ptr %41, align 4, !tbaa !15
  store i32 0, ptr %10, align 4, !tbaa !3
  br label %42

42:                                               ; preds = %79, %4
  %43 = load i32, ptr %10, align 4, !tbaa !3
  %44 = load i32, ptr %13, align 4, !tbaa !3
  %45 = icmp slt i32 %43, %44
  br i1 %45, label %46, label %82

46:                                               ; preds = %42
  store i32 0, ptr %11, align 4, !tbaa !3
  br label %47

47:                                               ; preds = %73, %46
  %48 = load i32, ptr %11, align 4, !tbaa !3
  %49 = load i32, ptr %6, align 4, !tbaa !3
  %50 = icmp slt i32 %48, %49
  br i1 %50, label %51, label %78

51:                                               ; preds = %47
  %52 = load ptr, ptr %5, align 8, !tbaa !7
  %53 = getelementptr inbounds nuw %struct.Abc_Cex_t_, ptr %52, i32 0, i32 5
  %54 = getelementptr inbounds [0 x i32], ptr %53, i64 0, i64 0
  %55 = load ptr, ptr %5, align 8, !tbaa !7
  %56 = getelementptr inbounds nuw %struct.Abc_Cex_t_, ptr %55, i32 0, i32 2
  %57 = load i32, ptr %56, align 4, !tbaa !10
  %58 = load i32, ptr %10, align 4, !tbaa !3
  %59 = add nsw i32 %58, 1
  %60 = load i32, ptr %6, align 4, !tbaa !3
  %61 = mul nsw i32 %59, %60
  %62 = add nsw i32 %57, %61
  %63 = load i32, ptr %11, align 4, !tbaa !3
  %64 = add nsw i32 %62, %63
  %65 = call i32 @Abc_InfoHasBit(ptr noundef %54, i32 noundef %64)
  %66 = icmp ne i32 %65, 0
  br i1 %66, label %67, label %72

67:                                               ; preds = %51
  %68 = load ptr, ptr %9, align 8, !tbaa !7
  %69 = getelementptr inbounds nuw %struct.Abc_Cex_t_, ptr %68, i32 0, i32 5
  %70 = getelementptr inbounds [0 x i32], ptr %69, i64 0, i64 0
  %71 = load i32, ptr %12, align 4, !tbaa !3
  call void @Abc_InfoSetBit(ptr noundef %70, i32 noundef %71)
  br label %72

72:                                               ; preds = %67, %51
  br label %73

73:                                               ; preds = %72
  %74 = load i32, ptr %11, align 4, !tbaa !3
  %75 = add nsw i32 %74, 1
  store i32 %75, ptr %11, align 4, !tbaa !3
  %76 = load i32, ptr %12, align 4, !tbaa !3
  %77 = add nsw i32 %76, 1
  store i32 %77, ptr %12, align 4, !tbaa !3
  br label %47, !llvm.loop !37

78:                                               ; preds = %47
  br label %79

79:                                               ; preds = %78
  %80 = load i32, ptr %10, align 4, !tbaa !3
  %81 = add nsw i32 %80, 1
  store i32 %81, ptr %10, align 4, !tbaa !3
  br label %42, !llvm.loop !38

82:                                               ; preds = %42
  store i32 0, ptr %10, align 4, !tbaa !3
  br label %83

83:                                               ; preds = %123, %82
  %84 = load i32, ptr %10, align 4, !tbaa !3
  %85 = load ptr, ptr %5, align 8, !tbaa !7
  %86 = getelementptr inbounds nuw %struct.Abc_Cex_t_, ptr %85, i32 0, i32 1
  %87 = load i32, ptr %86, align 4, !tbaa !15
  %88 = icmp sle i32 %84, %87
  br i1 %88, label %89, label %126

89:                                               ; preds = %83
  store i32 0, ptr %11, align 4, !tbaa !3
  br label %90

90:                                               ; preds = %117, %89
  %91 = load i32, ptr %11, align 4, !tbaa !3
  %92 = load i32, ptr %6, align 4, !tbaa !3
  %93 = icmp slt i32 %91, %92
  br i1 %93, label %94, label %122

94:                                               ; preds = %90
  %95 = load ptr, ptr %5, align 8, !tbaa !7
  %96 = getelementptr inbounds nuw %struct.Abc_Cex_t_, ptr %95, i32 0, i32 5
  %97 = getelementptr inbounds [0 x i32], ptr %96, i64 0, i64 0
  %98 = load ptr, ptr %5, align 8, !tbaa !7
  %99 = getelementptr inbounds nuw %struct.Abc_Cex_t_, ptr %98, i32 0, i32 2
  %100 = load i32, ptr %99, align 4, !tbaa !10
  %101 = load i32, ptr %10, align 4, !tbaa !3
  %102 = load ptr, ptr %5, align 8, !tbaa !7
  %103 = getelementptr inbounds nuw %struct.Abc_Cex_t_, ptr %102, i32 0, i32 3
  %104 = load i32, ptr %103, align 4, !tbaa !12
  %105 = mul nsw i32 %101, %104
  %106 = add nsw i32 %100, %105
  %107 = load i32, ptr %11, align 4, !tbaa !3
  %108 = add nsw i32 %106, %107
  %109 = call i32 @Abc_InfoHasBit(ptr noundef %97, i32 noundef %108)
  %110 = icmp ne i32 %109, 0
  br i1 %110, label %111, label %116

111:                                              ; preds = %94
  %112 = load ptr, ptr %9, align 8, !tbaa !7
  %113 = getelementptr inbounds nuw %struct.Abc_Cex_t_, ptr %112, i32 0, i32 5
  %114 = getelementptr inbounds [0 x i32], ptr %113, i64 0, i64 0
  %115 = load i32, ptr %12, align 4, !tbaa !3
  call void @Abc_InfoSetBit(ptr noundef %114, i32 noundef %115)
  br label %116

116:                                              ; preds = %111, %94
  br label %117

117:                                              ; preds = %116
  %118 = load i32, ptr %11, align 4, !tbaa !3
  %119 = add nsw i32 %118, 1
  store i32 %119, ptr %11, align 4, !tbaa !3
  %120 = load i32, ptr %12, align 4, !tbaa !3
  %121 = add nsw i32 %120, 1
  store i32 %121, ptr %12, align 4, !tbaa !3
  br label %90, !llvm.loop !39

122:                                              ; preds = %90
  br label %123

123:                                              ; preds = %122
  %124 = load i32, ptr %10, align 4, !tbaa !3
  %125 = add nsw i32 %124, 1
  store i32 %125, ptr %10, align 4, !tbaa !3
  br label %83, !llvm.loop !40

126:                                              ; preds = %83
  %127 = load ptr, ptr %9, align 8, !tbaa !7
  call void @llvm.lifetime.end.p0(i64 4, ptr %13) #8
  call void @llvm.lifetime.end.p0(i64 4, ptr %12) #8
  call void @llvm.lifetime.end.p0(i64 4, ptr %11) #8
  call void @llvm.lifetime.end.p0(i64 4, ptr %10) #8
  call void @llvm.lifetime.end.p0(i64 8, ptr %9) #8
  ret ptr %127
}