; Function Attrs: nofree nounwind memory(readwrite, argmem: read) uwtable
define noalias noundef ptr @Abc_CexTransformTempor(ptr noundef readonly captures(none) %0, i32 noundef %1, i32 noundef %2, i32 noundef %3) local_unnamed_addr #3 {
  %5 = getelementptr inbounds nuw i8, ptr %0, i64 12
  %6 = load i32, ptr %5, align 4, !tbaa !8
  %7 = sdiv i32 %6, %1
  %8 = add i32 %7, -1
  %9 = getelementptr inbounds nuw i8, ptr %0, i64 4
  %10 = load i32, ptr %9, align 4, !tbaa !11
  %11 = add i32 %10, %7
  %12 = mul nsw i32 %11, %1
  %13 = add nsw i32 %12, %3
  %14 = ashr i32 %13, 5
  %15 = and i32 %13, 31
  %16 = icmp ne i32 %15, 0
  %17 = zext i1 %16 to i32
  %18 = add nsw i32 %14, %17
  %19 = sext i32 %18 to i64
  %20 = shl nsw i64 %19, 2
  %21 = add nsw i64 %20, 20
  %calloc.i = tail call ptr @calloc(i64 1, i64 %21)
  %22 = getelementptr inbounds nuw i8, ptr %calloc.i, i64 8
  store i32 %3, ptr %22, align 4, !tbaa !3
  %23 = getelementptr inbounds nuw i8, ptr %calloc.i, i64 12
  store i32 %1, ptr %23, align 4, !tbaa !8
  %24 = getelementptr inbounds nuw i8, ptr %calloc.i, i64 16
  store i32 %13, ptr %24, align 4, !tbaa !9
  %25 = load i32, ptr %0, align 4, !tbaa !10
  store i32 %25, ptr %calloc.i, align 4, !tbaa !10
  %26 = add nsw i32 %8, %10
  %27 = getelementptr inbounds nuw i8, ptr %calloc.i, i64 4
  store i32 %26, ptr %27, align 4, !tbaa !11
  %28 = icmp sgt i32 %7, 1
  br i1 %28, label %.preheader48.lr.ph, label %.preheader47

.preheader48.lr.ph:                               ; preds = %4
  %29 = icmp sgt i32 %1, 0
  %30 = getelementptr inbounds nuw i8, ptr %0, i64 20
  %31 = getelementptr inbounds nuw i8, ptr %calloc.i, i64 20
  br i1 %29, label %.preheader48.lr.ph.split.us, label %.preheader47

.preheader48.lr.ph.split.us:                      ; preds = %.preheader48.lr.ph
  %32 = getelementptr inbounds nuw i8, ptr %0, i64 8
  %33 = load i32, ptr %32, align 4, !tbaa !3
  br label %.preheader48.us

.preheader48.us:                                  ; preds = %._crit_edge.us, %.preheader48.lr.ph.split.us
  %.052.us = phi i32 [ 0, %.preheader48.lr.ph.split.us ], [ %34, %._crit_edge.us ]
  %.04051.us = phi i32 [ %3, %.preheader48.lr.ph.split.us ], [ %54, %._crit_edge.us ]
  %34 = add nuw nsw i32 %.052.us, 1
  %35 = mul nuw nsw i32 %34, %1
  %invariant.op.us = add i32 %35, %33
  br label %36

36:                                               ; preds = %.preheader48.us, %52
  %.14150.us = phi i32 [ %.04051.us, %.preheader48.us ], [ %54, %52 ]
  %.04249.us = phi i32 [ 0, %.preheader48.us ], [ %53, %52 ]
  %.reass.us = add i32 %.04249.us, %invariant.op.us
  %37 = ashr i32 %.reass.us, 5
  %38 = sext i32 %37 to i64
  %39 = getelementptr inbounds i32, ptr %30, i64 %38
  %40 = load i32, ptr %39, align 4, !tbaa !12
  %41 = and i32 %.reass.us, 31
  %42 = shl nuw i32 1, %41
  %43 = and i32 %42, %40
  %.not46.us = icmp eq i32 %43, 0
  br i1 %.not46.us, label %52, label %44

44:                                               ; preds = %36
  %45 = and i32 %.14150.us, 31
  %46 = shl nuw i32 1, %45
  %47 = ashr i32 %.14150.us, 5
  %48 = sext i32 %47 to i64
  %49 = getelementptr inbounds i32, ptr %31, i64 %48
  %50 = load i32, ptr %49, align 4, !tbaa !12
  %51 = or i32 %50, %46
  store i32 %51, ptr %49, align 4, !tbaa !12
  br label %52

52:                                               ; preds = %44, %36
  %53 = add nuw nsw i32 %.04249.us, 1
  %54 = add nsw i32 %.14150.us, 1
  %exitcond.not = icmp eq i32 %53, %1
  br i1 %exitcond.not, label %._crit_edge.us, label %36, !llvm.loop !33

._crit_edge.us:                                   ; preds = %52
  %exitcond67.not = icmp eq i32 %34, %8
  br i1 %exitcond67.not, label %.preheader47, label %.preheader48.us, !llvm.loop !34

.preheader47:                                     ; preds = %._crit_edge.us, %.preheader48.lr.ph, %4
  %.040.lcssa = phi i32 [ %3, %4 ], [ %3, %.preheader48.lr.ph ], [ %54, %._crit_edge.us ]
  %.not56 = icmp slt i32 %10, 0
  br i1 %.not56, label %._crit_edge59, label %.preheader.lr.ph

.preheader.lr.ph:                                 ; preds = %.preheader47
  %55 = icmp sgt i32 %1, 0
  %56 = getelementptr inbounds nuw i8, ptr %0, i64 20
  %57 = getelementptr inbounds nuw i8, ptr %calloc.i, i64 20
  br i1 %55, label %.preheader.lr.ph.split.us, label %._crit_edge59

.preheader.lr.ph.split.us:                        ; preds = %.preheader.lr.ph
  %58 = getelementptr inbounds nuw i8, ptr %0, i64 8
  %59 = load i32, ptr %58, align 4, !tbaa !3
  br label %.preheader.us

.preheader.us:                                    ; preds = %._crit_edge.us62, %.preheader.lr.ph.split.us
  %.158.us = phi i32 [ 0, %.preheader.lr.ph.split.us ], [ %80, %._crit_edge.us62 ]
  %.257.us = phi i32 [ %.040.lcssa, %.preheader.lr.ph.split.us ], [ %79, %._crit_edge.us62 ]
  %60 = mul nsw i32 %.158.us, %6
  %invariant.op.us61 = add i32 %60, %59
  br label %61

61:                                               ; preds = %.preheader.us, %77
  %.355.us = phi i32 [ %.257.us, %.preheader.us ], [ %79, %77 ]
  %.14354.us = phi i32 [ 0, %.preheader.us ], [ %78, %77 ]
  %.reass.us60 = add i32 %.14354.us, %invariant.op.us61
  %62 = ashr i32 %.reass.us60, 5
  %63 = sext i32 %62 to i64
  %64 = getelementptr inbounds i32, ptr %56, i64 %63
  %65 = load i32, ptr %64, align 4, !tbaa !12
  %66 = and i32 %.reass.us60, 31
  %67 = shl nuw i32 1, %66
  %68 = and i32 %67, %65
  %.not45.us = icmp eq i32 %68, 0
  br i1 %.not45.us, label %77, label %69

69:                                               ; preds = %61
  %70 = and i32 %.355.us, 31
  %71 = shl nuw i32 1, %70
  %72 = ashr i32 %.355.us, 5
  %73 = sext i32 %72 to i64
  %74 = getelementptr inbounds i32, ptr %57, i64 %73
  %75 = load i32, ptr %74, align 4, !tbaa !12
  %76 = or i32 %75, %71
  store i32 %76, ptr %74, align 4, !tbaa !12
  br label %77

77:                                               ; preds = %69, %61
  %78 = add nuw nsw i32 %.14354.us, 1
  %79 = add nsw i32 %.355.us, 1
  %exitcond68.not = icmp eq i32 %78, %1
  br i1 %exitcond68.not, label %._crit_edge.us62, label %61, !llvm.loop !35

._crit_edge.us62:                                 ; preds = %77
  %80 = add nuw i32 %.158.us, 1
  %exitcond69.not = icmp eq i32 %.158.us, %10
  br i1 %exitcond69.not, label %._crit_edge59, label %.preheader.us, !llvm.loop !36

._crit_edge59:                                    ; preds = %._crit_edge.us62, %.preheader.lr.ph, %.preheader47
  ret ptr %calloc.i
}